(dp0
S'thresh'
p1
F0.025879267545739312
sS'mat'
p2
(lp3
(lp4
F-8.278202512824164
aF-3.778639786562322
aF-3.065987845329538
aF-3.074317933324295
aF-6.886367971328657
aF-4.573067018135221
aF-3.835681983832562
aF-6.571436256429501
aF-3.2839224617541776
aF-6.573454420585738
aF-4.402843491767609
aF-2.247944694330468
aF-3.4950721187639022
aF-1.577744776706158
aF-7.474707275095352
aF-3.957017537406527
aF-8.473947089950258
aF-2.184306736230932
aF-2.3070824064334134
aF-1.8912109663136536
aF-4.424515084408981
aF-3.80187630985188
aF-4.925573097796918
aF-6.073597828190321
aF-3.5899174201255653
aF-6.311867458916809
aF-10.475427090160382
aa(lp5
F-2.427590643953399
aF-4.8098508265195274
aF-6.94906411149928
aF-6.852437275810209
aF-1.1662650965248549
aF-8.349957272040324
aF-8.04767640016739
aF-8.04767640016739
aF-2.9328116646192455
aF-4.72483233275175
aF-8.69826396630854
aF-2.08745576996166
aF-6.1333146088470025
aF-7.8873337500922105
aF-2.168237040462967
aF-8.092128162738224
aF-8.880585523102495
aF-2.8209951469469114
aF-3.8962942043458404
aF-4.9351277415881105
aF-2.171769106737749
aF-5.7715245642415
aF-7.964294791228339
aF-8.880585523102495
aF-2.5182473126559666
aF-8.785275343298169
aF-8.880585523102495
aa(lp6
F-2.0057227154763404
aF-8.226679042242914
aF-4.05716191184332
aF-7.856932016736829
aF-1.8292232096928702
aF-8.337904677353139
aF-8.973893444073134
aF-1.874370621692433
aF-2.7673175173482076
aF-9.466369929170929
aF-3.107740199042328
aF-3.231068334796756
aF-7.993064191061409
aF-7.786727758063581
aF-1.6195666584647854
aF-8.496969371982825
aF-6.820840085050053
aF-3.274751348973436
aF-5.219174232463656
aF-2.2975099198602447
aF-3.4023733263381515
aF-9.466369929170929
aF-9.22520787235404
aF-9.561680108975255
aF-4.777527267458723
aF-8.532060691794095
aF-9.561680108975255
aa(lp7
F-2.6197873444139472
aF-6.237190687622325
aF-6.268541217506401
aF-3.776231043684836
aF-1.0970444176359597
aF-6.434437894632955
aF-4.267750041156818
aF-6.072513594808079
aF-1.5969036393650113
aF-5.848323470923198
aF-7.992582512679505
aF-3.91021414150412
aF-4.8508963265024345
aF-4.325364555346749
aF-2.3338472159139014
aF-7.392961390130383
aF-6.968078196165117
aF-3.082030677140232
aF-2.82270746924852
aF-6.361942392594802
aF-2.8896719424740787
aF-4.8822468563865105
aF-5.422153689453343
aF-9.022201929860664
aF-3.5651728721578055
aF-8.68572969323945
aF-9.022201929860664
aa(lp8
F-2.660249291049277
aF-6.0537837999658635
aF-3.196862448957849
aF-2.1144172317111862
aF-3.2100416919590584
aF-4.239381853988048
aF-4.511082387705447
aF-5.998626660331562
aF-4.117736744565722
aF-7.721599677724549
aF-6.005876821556622
aF-2.95676144294933
aF-3.3700918435153406
aF-2.0099102029812164
aF-5.062917842600306
aF-4.131678668746416
aF-5.451322827963161
aF-1.632502374202457
aF-2.1263082828541964
aF-3.1789815478963197
aF-6.1063980605736985
aF-3.6819005385812584
aF-4.352312608529753
aF-4.018800216970039
aF-4.104607453123929
aF-7.547015103432747
aF-10.572306179228283
aa(lp9
F-2.3584713204199006
aF-7.211438645160858
aF-6.766752823899412
aF-6.805973537052694
aF-2.057800289982265
aF-2.537488943777941
aF-7.987967434659854
aF-7.316799160818684
aF-1.8665239932360391
aF-8.484404320973745
aF-8.350872928349222
aF-3.3135145641122135
aF-7.339272016670743
aF-7.865365112567522
aF-1.2954522392288328
aF-7.316799160818684
aF-8.820876557594959
aF-2.142157155631869
aF-5.7029266513167185
aF-3.055685454810114
aF-2.918243224193592
aF-8.638555000801004
aF-7.362261534895442
aF-8.820876557594959
aF-5.423018077198318
aF-8.820876557594959
aF-8.820876557594959
aa(lp10
F-2.3618120990737204
aF-7.133361102536933
aF-7.889687184718409
aF-6.99982970991241
aF-1.489574195892324
aF-6.681375978793875
aF-3.9698685573078074
aF-1.79936145782299
aF-2.408686008157459
aF-7.263981284953997
aF-8.191968056591342
aF-3.263010793509354
aF-5.419379334351562
aF-3.312737566372569
aF-2.3720596920070776
aF-7.72934453464323
aF-8.722596307653513
aF-2.0747782408145983
aF-3.38698315636178
aF-4.439009745792884
aF-3.0669542083252472
aF-8.3861240710323
aF-7.4698333391581455
aF-8.722596307653513
aF-4.643365383241461
aF-8.3861240710323
aF-8.722596307653513
aa(lp11
F-1.814797302349937
aF-6.899342306560212
aF-7.162994954285157
aF-7.968354125452031
aF-0.6283376485746017
aF-7.828592183076871
aF-8.983084930139437
aF-8.130873054949806
aF-1.9625553066608963
aF-9.711323430510653
aF-9.354648486571921
aF-6.0135550289794715
aF-6.219154270642772
aF-5.385300414524505
aF-2.4603331199564864
aF-8.01964741983958
aF-8.949183378463756
aF-4.227119441004167
aF-5.890476305748377
aF-3.6558785537392646
aF-4.322577911755601
aF-9.172326929777967
aF-6.934280357921492
aF-10.047795667131867
aF-4.902629480078005
aF-9.054543894121583
aF-10.047795667131867
aa(lp12
F-3.662511943963406
aF-4.666178797640135
aF-2.643302644041413
aF-3.2773859967446453
aF-3.2384622469185755
aF-3.845773770752905
aF-3.514586083244178
aF-8.824436685605887
aF-8.293808434543717
aF-8.766167777481913
aF-5.0208901565138255
aF-2.971487358354651
aF-3.2736500023618147
aF-1.3341306474058323
aF-2.578484970903766
aF-4.630548493047526
aF-6.609590506919849
aF-3.3488940596886456
aF-2.0990909672899325
aF-2.0998833508450128
aF-6.677336495452237
aF-3.5649641028814183
aF-9.18111162954462
aF-6.10974194178501
aF-9.691937253310611
aF-4.96708108152005
aF-10.433874598039989
aa(lp13
F-2.07187206554797
aF-6.184793013343006
aF-6.6547966425887415
aF-5.821887519653638
aF-1.5386008528319934
aF-6.6547966425887415
aF-6.6547966425887415
aF-6.559486462784417
aF-4.037400809754662
aF-6.6547966425887415
aF-6.559486462784417
aF-6.6547966425887415
aF-6.6547966425887415
aF-6.559486462784417
aF-1.265268395987321
aF-6.559486462784417
aF-6.6547966425887415
aF-4.491473616928204
aF-6.559486462784417
aF-6.6547966425887415
aF-1.145813246237608
aF-6.6547966425887415
aF-6.6547966425887415
aF-6.6547966425887415
aF-6.4724750857947875
aF-6.6547966425887415
aF-6.6547966425887415
aa(lp14
F-3.345570361689635
aF-5.849819974320766
aF-6.6764985475052345
aF-6.345141411550792
aF-0.752051782841005
aF-5.17242115072896
aF-5.520066687948298
aF-4.756429629633808
aF-1.6867950894500139
aF-6.482342533064276
aF-6.001369872447968
aF-3.664822623554107
aF-5.651994230990846
aF-2.249088906983535
aF-3.9636977436444263
aF-6.27103343939707
aF-7.610807784882067
aF-5.110863257729527
aF-2.471805928114268
aF-5.746023180639122
aF-5.299172856368104
aF-7.523796407892438
aF-5.281315238968097
aF-7.706117964686392
aF-3.9925458979820845
aF-7.706117964686392
aF-7.706117964686392
aa(lp15
F-2.178687611151536
aF-6.266762560360041
aF-6.0935636855620885
aF-2.6470476957724585
aF-1.6370561217224802
aF-4.232811344847082
aF-6.545933943143914
aF-7.375036759939888
aF-1.9571687730455545
aF-9.611870475371154
aF-4.999453880862294
aF-1.9222913595203799
aF-4.950148119878141
aF-6.598119696314484
aF-2.4157969626943507
aF-5.25283335892197
aF-9.301715547067314
aF-5.833898478063762
aF-3.4957776877022346
aF-3.7070041674654743
aF-3.540083539424338
aF-4.957044698937201
aF-5.67117166996634
aF-9.707180655175478
aF-2.2475537829913494
aF-8.544029845369797
aF-9.707180655175478
aa(lp16
F-1.6040173240423012
aF-3.386237466901784
aF-6.236687664028429
aF-8.08415774027049
aF-1.243744909758658
aF-6.396602048572437
aF-7.678692632162325
aF-8.14869626140806
aF-2.160152642727742
aF-9.24730855007617
aF-8.554161369516224
aF-6.251576276522179
aF-3.411621004540031
aF-5.609722390349784
aF-2.079422267729543
aF-2.5800973370884104
aF-9.24730855007617
aF-4.282368215242044
aF-3.361482334991185
aF-7.489450632523797
aF-3.087579113163968
aF-8.659521885174051
aF-7.836321576365908
aF-9.24730855007617
aF-3.83834466344107
aF-9.24730855007617
aF-9.24730855007617
aa(lp17
F-3.0845122692222877
aF-7.012742510692465
aF-2.867767075816605
aF-1.623589244735024
aF-2.1947677511853425
aF-4.81899619773257
aF-1.870948428038705
aF-6.400940969586472
aF-2.9687518346159787
aF-6.4429743512930235
aF-4.687208484712874
aF-4.50104035061735
aF-5.624218494245305
aF-4.241549851781478
aF-2.681480644686927
aF-6.818586496251507
aF-7.131083737823012
aF-6.455681002562138
aF-2.6280965416149322
aF-1.8856478078703336
aF-4.476003277435605
aF-5.020109444510236
aF-6.8870542955289675
aF-7.733040680318361
aF-4.067129409047593
aF-7.620367517814248
aF-10.121803469553459
aa(lp18
F-4.691690641444153
aF-4.475772306492058
aF-4.016705336903297
aF-3.807801280824587
aF-5.212392321596268
aF-2.0848323563250792
aF-4.655665874012451
aF-5.818816683818132
aF-4.567717986831801
aF-7.1977309376404
aF-4.648745431167877
aF-3.1688590395476672
aF-2.739482719724716
aF-1.6393953013100306
aF-3.425549709706924
aF-3.6611656155464205
aF-8.718757892730448
aF-1.9246667399246964
aF-3.3802033180009765
aF-2.9875972341230375
aF-2.1642493746929743
aF-3.7940157199859037
aF-3.163192879603293
aF-6.412334023429236
aF-5.335019732440061
aF-7.366696703252799
aF-10.367416518317828
aa(lp19
F-2.0665891869139332
aF-7.717673872569685
aF-8.362030888960199
aF-8.228499496335676
aF-1.6434203921201418
aF-7.11609388553523
aF-8.005355945021467
aF-3.373543828086954
aF-2.8750628305665598
aF-8.63396460444384
aF-7.645353210990059
aF-2.2378686299762713
aF-4.856902584449811
aF-7.851205265194208
aF-1.9848181504277773
aF-2.843240199653831
aF-8.767495997068362
aF-1.7593783868532173
aF-3.7770634102896268
aF-3.3638538297859846
aF-3.1872272327775306
aF-9.00865805388525
aF-7.3812016359484725
aF-9.103968233689576
aF-5.526020340282922
aF-9.103968233689576
aF-9.103968233689576
aa(lp20
F-6.272877006546167
aF-6.272877006546167
aF-6.272877006546167
aF-6.272877006546167
aF-6.177566826741843
aF-6.272877006546167
aF-6.272877006546167
aF-6.272877006546167
aF-6.177566826741843
aF-6.272877006546167
aF-6.272877006546167
aF-5.439967883611064
aF-6.272877006546167
aF-5.9364047699249545
aF-6.272877006546167
aF-6.272877006546167
aF-6.272877006546167
aF-6.272877006546167
aF-6.272877006546167
aF-6.272877006546167
aF-0.05467537261384564
aF-6.177566826741843
aF-6.0905554497522125
aF-6.272877006546167
aF-6.272877006546167
aF-6.272877006546167
aF-6.272877006546167
aa(lp21
F-2.2864631280497663
aF-5.4284706383273935
aF-4.078434780859852
aF-3.4750111733955915
aF-1.2354430113696866
aF-5.292731468527424
aF-4.204464099701707
aF-5.751477943248525
aF-2.2210153797853405
aF-9.409626856271421
aF-4.172625139718488
aF-4.118175109509366
aF-3.6711887283806925
aF-3.6225680413746186
aF-2.142836263322184
aF-4.958958288875376
aF-8.402822116856434
aF-4.008135573458845
aF-2.6517157539533285
aF-2.878442385953377
aF-3.8835450522200547
aF-4.62697135065802
aF-6.22283934595472
aF-9.058228969433532
aF-3.279659740702512
aF-8.5698762015196
aF-10.051480742443816
aa(lp22
F-3.0182699180557035
aF-6.140182916199361
aF-3.5066352423950726
aF-6.433006388151561
aF-1.7274467848529031
aF-5.765970351595302
aF-7.802264562118884
aF-2.5908602972913695
aF-2.2087092810649724
aF-9.541380297861517
aF-4.55988338157703
aF-4.225525310648153
aF-4.23731027882403
aF-5.299500294930877
aF-2.526427729585061
aF-3.2632919303606864
aF-6.092614499280252
aF-6.935845660284902
aF-2.5220148423300772
aF-1.47312194199614
aF-2.8361178863094807
aF-8.155085936741626
aF-5.007954016732267
aF-9.541380297861517
aF-4.624210731770939
aF-8.640593752523326
aF-9.803744562329008
aa(lp23
F-2.8892812136181445
aF-7.668717826448337
aF-5.347061100342709
aF-8.00519006306955
aF-2.077035806176396
aF-6.861244233099919
aF-8.058774309203656
aF-0.939443043383599
aF-2.0719305130844172
aF-10.04207199033059
aF-9.382826361446327
aF-4.359399664070511
aF-5.69394690733239
aF-6.9182397141492835
aF-2.1244384947787034
aF-7.905935104974209
aF-10.352226918634429
aF-3.1541113386766324
aF-3.2856048255622348
aF-3.831739686771187
aF-3.6911862736158505
aF-8.368095556758918
aF-4.762597711584033
aF-10.447537098438755
aF-3.808707563425955
aF-7.644176717532219
aF-10.447537098438755
aa(lp24
F-3.343320863586449
aF-3.6342473648848967
aF-2.997529793461181
aF-3.6012430313891772
aF-3.2342384691608967
aF-5.1815680648704365
aF-3.134975533371189
aF-7.34389726635604
aF-3.4832975182761836
aF-8.074784774898832
aF-7.153378942357906
aF-2.255843788258552
aF-3.2851585595881536
aF-2.075911840350128
aF-5.702864988503722
aF-3.135526143644804
aF-8.847974663132314
aF-1.892593919143589
aF-1.994382289010327
aF-2.02167049055917
aF-7.867145410120588
aF-6.590851944215026
aF-9.253439771240478
aF-6.512599747315277
aF-6.291609049362169
aF-6.886316157108862
aF-9.435761328034433
aa(lp25
F-2.389849021770183
aF-8.458737465842969
aF-8.276415909049014
aF-7.988733836597233
aF-0.42751469719454566
aF-8.458737465842969
aF-8.458737465842969
aF-8.458737465842969
aF-1.6531256605295352
aF-8.458737465842969
aF-8.458737465842969
aF-8.053272357734803
aF-8.276415909049014
aF-8.276415909049014
aF-2.980184048991999
aF-8.196373201375478
aF-8.458737465842969
aF-7.205974497347601
aF-6.379295924163133
aF-8.196373201375478
aF-6.218027776567011
aF-8.276415909049014
aF-8.458737465842969
aF-8.458737465842969
aF-5.301737044692855
aF-8.363427286038643
aF-8.458737465842969
aa(lp26
F-1.4482132675258674
aF-6.781568902080074
aF-7.360602775872598
aF-5.917150000912759
aF-1.7281267713796926
aF-7.087735789205958
aF-8.247905970873502
aF-1.6850584073336787
aF-1.674026302665311
aF-8.894533135798554
aF-7.015762289580869
aF-4.986153121648909
aF-7.029748531555609
aF-3.1115474666005345
aF-2.145986762470973
aF-7.0019689674485335
aF-8.989843315602878
aF-4.13313650379936
aF-4.192401241967665
aF-5.854349099673729
aF-6.707460929926352
aF-8.894533135798554
aF-8.201385955238608
aF-8.989843315602878
aF-6.4326160042352525
aF-8.894533135798554
aF-8.989843315602878
aa(lp27
F-2.2401151942819317
aF-6.47198955509525
aF-2.2114788763014803
aF-6.639043639758417
aF-2.5401639223709247
aF-5.186791310846728
aF-6.146567154660622
aF-4.081111854955527
aF-2.0728033001385424
aF-6.552032262768787
aF-6.734353819562742
aF-5.510578387940626
aF-6.0924999333903465
aF-6.397881582941529
aF-4.095296489947483
aF-1.2347295963096694
aF-6.2037255685005706
aF-5.252749278638526
aF-5.186791310846728
aF-1.6935126834094199
aF-4.102464979426095
aF-6.552032262768787
aF-5.818063087688587
aF-6.397881582941529
aF-4.421818395715528
aF-6.734353819562742
aF-6.734353819562742
aa(lp28
F-3.4572044677502576
aF-4.056429393780727
aF-4.135210271633841
aF-4.612893587553804
aF-1.6371842298749208
aF-4.8067349881806205
aF-5.4031146168055715
aF-5.7473841638868155
aF-2.868493588364607
aF-7.265254882795426
aF-6.067551691483085
aF-3.6409139498190606
aF-3.2189195397596855
aF-3.8598994909846067
aF-1.2865273582617516
aF-3.397967771208671
aF-7.639948332236837
aF-3.8034328793168353
aF-1.741047739265154
aF-3.251126654430126
aF-5.761177486019151
aF-6.511483080419046
aF-4.424715498647137
aF-7.735258512041161
aF-7.093404625868766
aF-5.833150985644241
aF-7.735258512041161
aa(lp29
F-1.7185690879881197
aF-5.371080897931181
aF-6.113018242660559
aF-6.113018242660559
aF-0.7988275269562316
aF-5.643014613414823
aF-4.523783037543978
aF-5.525231577758439
aF-2.1930270675832357
aF-6.113018242660559
aF-5.280109119725455
aF-3.6449187111889394
aF-5.850653978193067
aF-6.113018242660559
aF-2.9818813321003645
aF-6.113018242660559
aF-5.930696685866604
aF-5.776546006039346
aF-5.582389991598388
aF-5.850653978193067
aF-4.726723881540668
aF-5.471164356488163
aF-5.707553134552394
aF-6.113018242660559
aF-3.6034189802821865
aF-2.5267253773217235
aF-6.113018242660559
aa(lp30
F-3.295836866004329
aF-3.295836866004329
aF-3.295836866004329
aF-3.295836866004329
aF-3.295836866004329
aF-3.295836866004329
aF-3.295836866004329
aF-3.295836866004329
aF-3.295836866004329
aF-3.295836866004329
aF-3.295836866004329
aF-3.295836866004329
aF-3.295836866004329
aF-3.295836866004329
aF-3.295836866004329
aF-3.295836866004329
aF-3.295836866004329
aF-3.295836866004329
aF-3.295836866004329
aF-3.295836866004329
aF-3.295836866004329
aF-3.295836866004329
aF-3.295836866004329
aF-3.295836866004329
aF-3.295836866004329
aF-3.295836866004329
aF-3.295836866004329
aas.